; Function Attrs: nounwind sspstrong uwtable
define internal i64 @ossl_x509_inspect(i64 noundef %0) #0 {
  %2 = tail call i64 @rb_obj_class(i64 noundef %0) #5
  %3 = tail call ptr @rb_check_typeddata(i64 noundef %0, ptr noundef nonnull @ossl_x509_type) #5
  %.not.i = icmp eq ptr %3, null
  br i1 %.not.i, label %4, label %6

4:                                                ; preds = %1
  %5 = load i64, ptr @rb_eRuntimeError, align 8, !tbaa !6
  tail call void (i64, ptr, ...) @ossl_raise(i64 noundef %5, ptr noundef nonnull @.str) #6
  unreachable

6:                                                ; preds = %1
  %7 = tail call ptr @X509_get_subject_name(ptr noundef nonnull %3) #5
  %.not4.i = icmp eq ptr %7, null
  br i1 %.not4.i, label %8, label %ossl_x509_get_subject.exit

8:                                                ; preds = %6
  %9 = load i64, ptr @eX509CertError, align 8, !tbaa !6
  tail call void (i64, ptr, ...) @ossl_raise(i64 noundef %9, ptr noundef null) #6
  unreachable

ossl_x509_get_subject.exit:                       ; preds = %6
  %10 = tail call i64 @ossl_x509name_new(ptr noundef nonnull %7) #5
  %11 = tail call ptr @rb_check_typeddata(i64 noundef %0, ptr noundef nonnull @ossl_x509_type) #5
  %.not.i6 = icmp eq ptr %11, null
  br i1 %.not.i6, label %12, label %14

12:                                               ; preds = %ossl_x509_get_subject.exit
  %13 = load i64, ptr @rb_eRuntimeError, align 8, !tbaa !6
  tail call void (i64, ptr, ...) @ossl_raise(i64 noundef %13, ptr noundef nonnull @.str) #6
  unreachable

14:                                               ; preds = %ossl_x509_get_subject.exit
  %15 = tail call ptr @X509_get_issuer_name(ptr noundef nonnull %11) #5
  %.not4.i7 = icmp eq ptr %15, null
  br i1 %.not4.i7, label %16, label %ossl_x509_get_issuer.exit

16:                                               ; preds = %14
  %17 = load i64, ptr @eX509CertError, align 8, !tbaa !6
  tail call void (i64, ptr, ...) @ossl_raise(i64 noundef %17, ptr noundef null) #6
  unreachable

ossl_x509_get_issuer.exit:                        ; preds = %14
  %18 = tail call i64 @ossl_x509name_new(ptr noundef nonnull %15) #5
  %19 = tail call ptr @rb_check_typeddata(i64 noundef %0, ptr noundef nonnull @ossl_x509_type) #5
  %.not.i8 = icmp eq ptr %19, null
  br i1 %.not.i8, label %20, label %ossl_x509_get_serial.exit

20:                                               ; preds = %ossl_x509_get_issuer.exit
  %21 = load i64, ptr @rb_eRuntimeError, align 8, !tbaa !6
  tail call void (i64, ptr, ...) @ossl_raise(i64 noundef %21, ptr noundef nonnull @.str) #6
  unreachable

ossl_x509_get_serial.exit:                        ; preds = %ossl_x509_get_issuer.exit
  %22 = tail call ptr @X509_get_serialNumber(ptr noundef nonnull %19) #5
  %23 = tail call i64 @asn1integer_to_num(ptr noundef %22) #5
  %24 = tail call ptr @rb_check_typeddata(i64 noundef %0, ptr noundef nonnull @ossl_x509_type) #5
  %.not.i9 = icmp eq ptr %24, null
  br i1 %.not.i9, label %25, label %27

25:                                               ; preds = %ossl_x509_get_serial.exit
  %26 = load i64, ptr @rb_eRuntimeError, align 8, !tbaa !6
  tail call void (i64, ptr, ...) @ossl_raise(i64 noundef %26, ptr noundef nonnull @.str) #6
  unreachable

27:                                               ; preds = %ossl_x509_get_serial.exit
  %28 = tail call ptr @X509_get0_notBefore(ptr noundef nonnull %24) #5
  %.not4.i10 = icmp eq ptr %28, null
  br i1 %.not4.i10, label %29, label %ossl_x509_get_not_before.exit

29:                                               ; preds = %27
  %30 = load i64, ptr @eX509CertError, align 8, !tbaa !6
  tail call void (i64, ptr, ...) @ossl_raise(i64 noundef %30, ptr noundef null) #6
  unreachable

ossl_x509_get_not_before.exit:                    ; preds = %27
  %31 = tail call i64 @asn1time_to_time(ptr noundef nonnull %28) #5
  %32 = tail call ptr @rb_check_typeddata(i64 noundef %0, ptr noundef nonnull @ossl_x509_type) #5
  %.not.i11 = icmp eq ptr %32, null
  br i1 %.not.i11, label %33, label %35

33:                                               ; preds = %ossl_x509_get_not_before.exit
  %34 = load i64, ptr @rb_eRuntimeError, align 8, !tbaa !6
  tail call void (i64, ptr, ...) @ossl_raise(i64 noundef %34, ptr noundef nonnull @.str) #6
  unreachable

35:                                               ; preds = %ossl_x509_get_not_before.exit
  %36 = tail call ptr @X509_get0_notAfter(ptr noundef nonnull %32) #5
  %.not4.i12 = icmp eq ptr %36, null
  br i1 %.not4.i12, label %37, label %ossl_x509_get_not_after.exit

37:                                               ; preds = %35
  %38 = load i64, ptr @eX509CertError, align 8, !tbaa !6
  tail call void (i64, ptr, ...) @ossl_raise(i64 noundef %38, ptr noundef null) #6
  unreachable

ossl_x509_get_not_after.exit:                     ; preds = %35
  %39 = tail call i64 @asn1time_to_time(ptr noundef nonnull %36) #5
  %40 = tail call i64 (ptr, ...) @rb_sprintf(ptr noundef nonnull @.str.44, i64 noundef %2, i64 noundef %10, i64 noundef %18, i64 noundef %23, i64 noundef %31, i64 noundef %39) #5
  ret i64 %40
}